; Function Attrs: nounwind uwtable
define internal fastcc i32 @jumponcond(ptr noundef captures(none) %0, ptr noundef captures(none) %1, i32 noundef range(i32 0, 2) %2) unnamed_addr #0 {
  %4 = load i32, ptr %1, align 8, !tbaa !51
  switch i32 %4, label %.thread.thread [
    i32 11, label %5
    i32 12, label %discharge2anyreg.exit.thread
  ]

5:                                                ; preds = %3
  %6 = load ptr, ptr %0, align 8, !tbaa !19
  %7 = getelementptr inbounds nuw i8, ptr %6, i64 24
  %8 = load ptr, ptr %7, align 8, !tbaa !20
  %9 = getelementptr inbounds nuw i8, ptr %1, i64 8
  %10 = load i32, ptr %9, align 8, !tbaa !39
  %11 = sext i32 %10 to i64
  %12 = getelementptr inbounds i32, ptr %8, i64 %11
  %13 = load i32, ptr %12, align 4, !tbaa !29
  %14 = and i32 %13, 63
  %15 = icmp eq i32 %14, 19
  br i1 %15, label %16, label %.thread.thread

16:                                               ; preds = %5
  %17 = getelementptr inbounds nuw i8, ptr %0, i64 48
  %18 = load i32, ptr %17, align 8, !tbaa !4
  %19 = add nsw i32 %18, -1
  store i32 %19, ptr %17, align 8, !tbaa !4
  %20 = lshr i32 %13, 23
  %21 = xor i32 %2, 1
  %22 = tail call fastcc i32 @condjump(ptr noundef nonnull %0, i32 noundef 26, i32 noundef %20, i32 noundef 0, i32 noundef %21)
  br label %55

.thread.thread:                                   ; preds = %3, %5
  %23 = getelementptr inbounds nuw i8, ptr %0, i64 60
  %24 = load i32, ptr %23, align 4, !tbaa !41
  %25 = add nsw i32 %24, 1
  %26 = load ptr, ptr %0, align 8, !tbaa !19
  %27 = getelementptr inbounds nuw i8, ptr %26, i64 115
  %28 = load i8, ptr %27, align 1, !tbaa !42
  %29 = zext i8 %28 to i32
  %.not5.i = icmp slt i32 %24, %29
  br i1 %.not5.i, label %discharge2anyreg.exit, label %30

30:                                               ; preds = %.thread.thread
  %31 = icmp samesign ugt i32 %25, 249
  br i1 %31, label %32, label %35

32:                                               ; preds = %30
  %33 = getelementptr inbounds nuw i8, ptr %0, i64 24
  %34 = load ptr, ptr %33, align 8, !tbaa !30
  tail call void @luaX_syntaxerror(ptr noundef %34, ptr noundef nonnull @.str) #8
  %.pre.i.i.i = load ptr, ptr %0, align 8, !tbaa !19
  %.pre.pre.i.i = load i32, ptr %23, align 4, !tbaa !41
  %.pre5.i.i = add nsw i32 %.pre.pre.i.i, 1
  br label %35

35:                                               ; preds = %32, %30
  %.pre4.pre-phi.i.i = phi i32 [ %.pre5.i.i, %32 ], [ %25, %30 ]
  %36 = phi ptr [ %.pre.i.i.i, %32 ], [ %26, %30 ]
  %37 = trunc i32 %25 to i8
  %38 = getelementptr inbounds nuw i8, ptr %36, i64 115
  store i8 %37, ptr %38, align 1, !tbaa !42
  br label %discharge2anyreg.exit

discharge2anyreg.exit:                            ; preds = %.thread.thread, %35
  %.pre-phi.i.i = phi i32 [ %25, %.thread.thread ], [ %.pre4.pre-phi.i.i, %35 ]
  store i32 %.pre-phi.i.i, ptr %23, align 4, !tbaa !41
  %39 = add nsw i32 %.pre-phi.i.i, -1
  tail call fastcc void @discharge2reg(ptr noundef nonnull %0, ptr noundef nonnull %1, i32 noundef %39)
  %.pre = load i32, ptr %1, align 8, !tbaa !51
  %40 = icmp eq i32 %.pre, 12
  br i1 %40, label %discharge2anyreg.exit.thread, label %freeexp.exit

discharge2anyreg.exit.thread:                     ; preds = %3, %discharge2anyreg.exit
  %41 = getelementptr inbounds nuw i8, ptr %1, i64 8
  %42 = load i32, ptr %41, align 8, !tbaa !39
  %43 = and i32 %42, 256
  %.not.i.i = icmp eq i32 %43, 0
  br i1 %.not.i.i, label %44, label %freeexp.exit

44:                                               ; preds = %discharge2anyreg.exit.thread
  %45 = getelementptr inbounds nuw i8, ptr %0, i64 74
  %46 = load i8, ptr %45, align 2, !tbaa !18
  %47 = zext i8 %46 to i32
  %.not3.i.i = icmp slt i32 %42, %47
  br i1 %.not3.i.i, label %freeexp.exit, label %48

48:                                               ; preds = %44
  %49 = getelementptr inbounds nuw i8, ptr %0, i64 60
  %50 = load i32, ptr %49, align 4, !tbaa !41
  %51 = add nsw i32 %50, -1
  store i32 %51, ptr %49, align 4, !tbaa !41
  br label %freeexp.exit

freeexp.exit:                                     ; preds = %discharge2anyreg.exit, %discharge2anyreg.exit.thread, %44, %48
  %52 = getelementptr inbounds nuw i8, ptr %1, i64 8
  %53 = load i32, ptr %52, align 8, !tbaa !39
  %54 = tail call fastcc i32 @condjump(ptr noundef %0, i32 noundef 27, i32 noundef 255, i32 noundef %53, i32 noundef %2)
  br label %55

55:                                               ; preds = %16, %freeexp.exit
  %.1 = phi i32 [ %22, %16 ], [ %54, %freeexp.exit ]
  ret i32 %.1
}